; Function Attrs: nounwind uwtable
define ptr @l_Std_Range_forIn_x27_loop___at_Lean_Elab_Tactic_GuardMsgs_elabGuardMsgs___spec__21(ptr readnone captures(none) %0, ptr noundef %1, ptr noundef %2, ptr noundef %3, ptr noundef readonly captures(none) %4, ptr noundef %5, ptr noundef %6, ptr readnone captures(none) %7, ptr readnone captures(none) %8) local_unnamed_addr #0 {
  %10 = getelementptr inbounds nuw i8, ptr %4, i64 16
  %11 = getelementptr inbounds nuw i8, ptr %4, i64 24
  br label %lean_dec.exit29

lean_dec.exit29:                                  ; preds = %lean_dec.exit29.backedge, %9
  %.025 = phi ptr [ %6, %9 ], [ %.025.be, %lean_dec.exit29.backedge ]
  %.023 = phi ptr [ %5, %9 ], [ %36, %lean_dec.exit29.backedge ]
  %12 = load ptr, ptr %10, align 8, !tbaa !4
  %13 = ptrtoint ptr %.025 to i64
  %14 = and i64 %13, 1
  %.not = icmp eq i64 %14, 0
  br i1 %.not, label %lean_nat_lt.exit.thread49, label %15, !prof !18

15:                                               ; preds = %lean_dec.exit29
  %16 = ptrtoint ptr %12 to i64
  %17 = and i64 %16, 1
  %.not51 = icmp eq i64 %17, 0
  br i1 %.not51, label %lean_nat_lt.exit, label %lean_nat_lt.exit.thread, !prof !18

lean_nat_lt.exit:                                 ; preds = %15
  %18 = tail call zeroext i1 @lean_nat_big_lt(ptr noundef %.025, ptr noundef %12) #7
  br i1 %18, label %27, label %.thread

lean_nat_lt.exit.thread49:                        ; preds = %lean_dec.exit29
  %19 = tail call zeroext i1 @lean_nat_big_lt(ptr noundef %.025, ptr noundef %12) #7
  br i1 %19, label %27, label %20

lean_nat_lt.exit.thread:                          ; preds = %15
  %.not52 = icmp ult ptr %.025, %12
  br i1 %.not52, label %27, label %.thread

20:                                               ; preds = %lean_nat_lt.exit.thread49
  %21 = load i32, ptr %.025, align 4, !tbaa !8
  %22 = icmp sgt i32 %21, 1
  br i1 %22, label %23, label %25, !prof !13

23:                                               ; preds = %20
  %24 = add nsw i32 %21, -1
  store i32 %24, ptr %.025, align 4, !tbaa !8
  br label %.thread

25:                                               ; preds = %20
  %.not.i = icmp eq i32 %21, 0
  br i1 %.not.i, label %.thread, label %26

26:                                               ; preds = %25
  tail call void @lean_dec_ref_cold(ptr noundef nonnull %.025) #7
  br label %.thread

27:                                               ; preds = %lean_nat_lt.exit.thread49, %lean_nat_lt.exit.thread, %lean_nat_lt.exit
  %28 = tail call ptr @l_Subarray_size___rarg(ptr noundef %2) #7
  %29 = tail call ptr @l_Subarray_get___rarg(ptr noundef %1, ptr noundef %.025) #7
  br i1 %.not, label %30, label %lean_inc.exit

30:                                               ; preds = %27
  %.val.i = load i32, ptr %.025, align 4, !tbaa !8
  %31 = icmp sgt i32 %.val.i, 0
  br i1 %31, label %32, label %34, !prof !13

32:                                               ; preds = %30
  %33 = add nuw i32 %.val.i, 1
  store i32 %33, ptr %.025, align 4, !tbaa !8
  br label %lean_inc.exit

34:                                               ; preds = %30
  %.not.i36 = icmp eq i32 %.val.i, 0
  br i1 %.not.i36, label %lean_inc.exit, label %35

35:                                               ; preds = %34
  tail call void @lean_inc_ref_cold(ptr noundef nonnull %.025) #7
  br label %lean_inc.exit

lean_inc.exit:                                    ; preds = %35, %34, %32, %27
  %36 = tail call ptr @l_Lean_Diff_Histogram_addLeft___at_Lean_Elab_Tactic_GuardMsgs_elabGuardMsgs___spec__9(ptr noundef %3, ptr noundef %28, ptr noundef %.023, ptr noundef %.025, ptr noundef %29)
  %37 = ptrtoint ptr %28 to i64
  %38 = and i64 %37, 1
  %.not53 = icmp eq i64 %38, 0
  br i1 %.not53, label %39, label %lean_dec.exit28

39:                                               ; preds = %lean_inc.exit
  %40 = load i32, ptr %28, align 4, !tbaa !8
  %41 = icmp sgt i32 %40, 1
  br i1 %41, label %42, label %44, !prof !13

42:                                               ; preds = %39
  %43 = add nsw i32 %40, -1
  store i32 %43, ptr %28, align 4, !tbaa !8
  br label %lean_dec.exit28

44:                                               ; preds = %39
  %.not.i30 = icmp eq i32 %40, 0
  br i1 %.not.i30, label %lean_dec.exit28, label %45

45:                                               ; preds = %44
  tail call void @lean_dec_ref_cold(ptr noundef nonnull %28) #7
  br label %lean_dec.exit28

lean_dec.exit28:                                  ; preds = %45, %44, %42, %lean_inc.exit
  %46 = load ptr, ptr %11, align 8, !tbaa !4
  br i1 %.not, label %62, label %47, !prof !18

47:                                               ; preds = %lean_dec.exit28
  %48 = ptrtoint ptr %46 to i64
  %49 = and i64 %48, 1
  %.not54 = icmp eq i64 %49, 0
  br i1 %.not54, label %lean_nat_add.exit.thread41, label %51, !prof !18

lean_nat_add.exit.thread41:                       ; preds = %47
  %50 = tail call ptr @lean_nat_big_add(ptr noundef %.025, ptr noundef %46) #7
  br label %lean_dec.exit29.backedge

51:                                               ; preds = %47
  %52 = lshr i64 %13, 1
  %53 = lshr i64 %48, 1
  %54 = add nuw i64 %53, %52
  %55 = icmp sgt i64 %54, -1
  br i1 %55, label %56, label %60, !prof !13

56:                                               ; preds = %51
  %57 = shl nuw i64 %54, 1
  %58 = or disjoint i64 %57, 1
  %59 = inttoptr i64 %58 to ptr
  br label %lean_dec.exit29.backedge

lean_dec.exit29.backedge:                         ; preds = %56, %60, %lean_nat_add.exit.thread41, %66, %68, %69
  %.025.be = phi ptr [ %50, %lean_nat_add.exit.thread41 ], [ %63, %66 ], [ %63, %68 ], [ %63, %69 ], [ %61, %60 ], [ %59, %56 ]
  br label %lean_dec.exit29

60:                                               ; preds = %51
  %61 = tail call ptr @lean_big_usize_to_nat(i64 noundef range(i64 0, -1) %54) #7
  br label %lean_dec.exit29.backedge

62:                                               ; preds = %lean_dec.exit28
  %63 = tail call ptr @lean_nat_big_add(ptr noundef %.025, ptr noundef %46) #7
  %64 = load i32, ptr %.025, align 4, !tbaa !8
  %65 = icmp sgt i32 %64, 1
  br i1 %65, label %66, label %68, !prof !13

66:                                               ; preds = %62
  %67 = add nsw i32 %64, -1
  store i32 %67, ptr %.025, align 4, !tbaa !8
  br label %lean_dec.exit29.backedge

68:                                               ; preds = %62
  %.not.i32 = icmp eq i32 %64, 0
  br i1 %.not.i32, label %lean_dec.exit29.backedge, label %69

69:                                               ; preds = %68
  tail call void @lean_dec_ref_cold(ptr noundef nonnull %.025) #7
  br label %lean_dec.exit29.backedge

.thread:                                          ; preds = %lean_nat_lt.exit, %lean_nat_lt.exit.thread, %26, %25, %23
  ret ptr %.023
}